target datalayout = "e-m:e-p270:32:32-p271:32:32-p272:64:64-i64:64-i128:128-f80:128-n8:16:32:64-S128"
target triple = "x86_64-unknown-linux-gnu"

%"class.proxygen::SessionHolder" = type { %"class.proxygen::HTTPSessionBase::InfoCallback", %"class.boost::intrusive::list_member_hook", %"class.boost::intrusive::list_member_hook", ptr, ptr, ptr, %"class.std::chrono::time_point", double, i32, [4 x i8], %"class.proxygen::Endpoint", ptr }
%"class.proxygen::HTTPSessionBase::InfoCallback" = type { ptr }
%"class.boost::intrusive::list_member_hook" = type { %"class.boost::intrusive::generic_hook" }
%"class.boost::intrusive::generic_hook" = type { %"struct.boost::intrusive::list_node" }
%"struct.boost::intrusive::list_node" = type { ptr, ptr }
%"class.std::chrono::time_point" = type { %"class.std::chrono::duration" }
%"class.std::chrono::duration" = type { i64 }
%"class.proxygen::Endpoint" = type <{ %"class.std::__cxx11::basic_string", i16, [6 x i8], i64, i8, [7 x i8] }>
%"class.std::__cxx11::basic_string" = type { %"struct.std::__cxx11::basic_string<char>::_Alloc_hider", i64, %union.anon }
%"struct.std::__cxx11::basic_string<char>::_Alloc_hider" = type { ptr }
%union.anon = type { i64, [8 x i8] }

; Function Attrs: mustprogress uwtable
define noundef ptr @_ZN8proxygen13SessionHolder14newTransactionEPNS_22HTTPTransactionHandlerE(ptr noundef nonnull align 8 dereferenceable(152) %this, ptr noundef %handler) #4 align 2 {
entry:
  %this.addr = alloca ptr, align 8
  %handler.addr = alloca ptr, align 8
  store ptr %this, ptr %this.addr, align 8
  store ptr %handler, ptr %handler.addr, align 8
  %this1 = load ptr, ptr %this.addr, align 8
  %session_ = getelementptr inbounds %"class.proxygen::SessionHolder", ptr %this1, i32 0, i32 3
  %0 = load ptr, ptr %session_, align 8
  %1 = load ptr, ptr %handler.addr, align 8
  %vtable = load ptr, ptr %0, align 8
  %vfn = getelementptr inbounds ptr, ptr %vtable, i64 50
  %2 = load ptr, ptr %vfn, align 8
  %call = call noundef ptr %2(ptr noundef nonnull align 8 dereferenceable(1582) %0, ptr noundef %1)
  ret ptr %call
}