; Function Attrs: mustprogress uwtable
define noundef ptr @_ZN8proxygen13SessionHolder14newTransactionEPNS_22HTTPTransactionHandlerE(ptr nocapture noundef nonnull readonly align 8 dereferenceable(152) %this, ptr noundef %handler) local_unnamed_addr #3 align 2 {
entry:
  %session_ = getelementptr inbounds i8, ptr %this, i64 40
  %0 = load ptr, ptr %session_, align 8
  %vtable = load ptr, ptr %0, align 8
  %vfn = getelementptr inbounds i8, ptr %vtable, i64 400
  %1 = load ptr, ptr %vfn, align 8
  %call = tail call noundef ptr %1(ptr noundef nonnull align 8 dereferenceable(1582) %0, ptr noundef %handler)
  ret ptr %call
}